target datalayout = "e-m:e-p270:32:32-p271:32:32-p272:64:64-i64:64-i128:128-f80:128-n8:16:32:64-S128"
target triple = "x86_64-pc-linux-gnu"

; Function Attrs: mustprogress nounwind uwtable
define void @_ZN7mitsuba14RadicalInverse26compute_faure_permutationsEjPPt(ptr noundef nonnull align 8 dereferenceable(68) %0, i32 noundef %1, ptr noundef %2) #1 align 2 {
  %4 = alloca ptr, align 8
  %5 = alloca i32, align 4
  %6 = alloca ptr, align 8
  %7 = alloca i32, align 4
  %8 = alloca i16, align 2
  %9 = alloca i16, align 2
  %10 = alloca i16, align 2
  %11 = alloca i16, align 2
  %12 = alloca i16, align 2
  store ptr %0, ptr %4, align 8
  store i32 %1, ptr %5, align 4
  store ptr %2, ptr %6, align 8
  %13 = load ptr, ptr %6, align 8
  %14 = getelementptr inbounds ptr, ptr %13, i64 1
  %15 = load ptr, ptr %14, align 8
  %16 = getelementptr inbounds i16, ptr %15, i64 0
  store i16 0, ptr %16, align 2
  %17 = load ptr, ptr %6, align 8
  %18 = getelementptr inbounds ptr, ptr %17, i64 2
  %19 = load ptr, ptr %18, align 8
  %20 = getelementptr inbounds i16, ptr %19, i64 0
  store i16 0, ptr %20, align 2
  %21 = load ptr, ptr %6, align 8
  %22 = getelementptr inbounds ptr, ptr %21, i64 2
  %23 = load ptr, ptr %22, align 8
  %24 = getelementptr inbounds i16, ptr %23, i64 1
  store i16 1, ptr %24, align 2
  store i32 2, ptr %7, align 4
  br label %25

25:                                               ; preds = %161, %3
  %26 = load i32, ptr %7, align 4
  %27 = load i32, ptr %5, align 4
  %28 = icmp ule i32 %26, %27
  br i1 %28, label %29, label %164

29:                                               ; preds = %25
  %30 = load i32, ptr %7, align 4
  %31 = and i32 %30, 1
  %32 = icmp ne i32 %31, 0
  br i1 %32, label %33, label %101

33:                                               ; preds = %29
  %34 = load i32, ptr %7, align 4
  %35 = sub i32 %34, 1
  %36 = udiv i32 %35, 2
  %37 = trunc i32 %36 to i16
  store i16 %37, ptr %8, align 2
  store i16 0, ptr %9, align 2
  br label %38

38:                                               ; preds = %97, %33
  %39 = load i16, ptr %9, align 2
  %40 = zext i16 %39 to i32
  %41 = load i32, ptr %7, align 4
  %42 = icmp ult i32 %40, %41
  br i1 %42, label %43, label %100

43:                                               ; preds = %38
  %44 = load i16, ptr %9, align 2
  %45 = zext i16 %44 to i32
  %46 = load i16, ptr %8, align 2
  %47 = zext i16 %46 to i32
  %48 = icmp eq i32 %45, %47
  br i1 %48, label %49, label %59

49:                                               ; preds = %43
  %50 = load i16, ptr %8, align 2
  %51 = load ptr, ptr %6, align 8
  %52 = load i32, ptr %7, align 4
  %53 = zext i32 %52 to i64
  %54 = getelementptr inbounds ptr, ptr %51, i64 %53
  %55 = load ptr, ptr %54, align 8
  %56 = load i16, ptr %9, align 2
  %57 = zext i16 %56 to i64
  %58 = getelementptr inbounds i16, ptr %55, i64 %57
  store i16 %50, ptr %58, align 2
  br label %96

59:                                               ; preds = %43
  %60 = load ptr, ptr %6, align 8
  %61 = load i32, ptr %7, align 4
  %62 = sub i32 %61, 1
  %63 = zext i32 %62 to i64
  %64 = getelementptr inbounds ptr, ptr %60, i64 %63
  %65 = load ptr, ptr %64, align 8
  %66 = load i16, ptr %9, align 2
  %67 = zext i16 %66 to i32
  %68 = load i16, ptr %9, align 2
  %69 = zext i16 %68 to i32
  %70 = load i16, ptr %8, align 2
  %71 = zext i16 %70 to i32
  %72 = icmp sgt i32 %69, %71
  %73 = zext i1 %72 to i32
  %74 = sub nsw i32 %67, %73
  %75 = sext i32 %74 to i64
  %76 = getelementptr inbounds i16, ptr %65, i64 %75
  %77 = load i16, ptr %76, align 2
  store i16 %77, ptr %10, align 2
  %78 = load i16, ptr %10, align 2
  %79 = zext i16 %78 to i32
  %80 = load i16, ptr %10, align 2
  %81 = zext i16 %80 to i32
  %82 = load i16, ptr %8, align 2
  %83 = zext i16 %82 to i32
  %84 = icmp sge i32 %81, %83
  %85 = zext i1 %84 to i32
  %86 = add nsw i32 %79, %85
  %87 = trunc i32 %86 to i16
  %88 = load ptr, ptr %6, align 8
  %89 = load i32, ptr %7, align 4
  %90 = zext i32 %89 to i64
  %91 = getelementptr inbounds ptr, ptr %88, i64 %90
  %92 = load ptr, ptr %91, align 8
  %93 = load i16, ptr %9, align 2
  %94 = zext i16 %93 to i64
  %95 = getelementptr inbounds i16, ptr %92, i64 %94
  store i16 %87, ptr %95, align 2
  br label %96

96:                                               ; preds = %59, %49
  br label %97

97:                                               ; preds = %96
  %98 = load i16, ptr %9, align 2
  %99 = add i16 %98, 1
  store i16 %99, ptr %9, align 2
  br label %38, !llvm.loop !14

100:                                              ; preds = %38
  br label %160

101:                                              ; preds = %29
  %102 = load i32, ptr %7, align 4
  %103 = udiv i32 %102, 2
  %104 = trunc i32 %103 to i16
  store i16 %104, ptr %11, align 2
  store i16 0, ptr %12, align 2
  br label %105

105:                                              ; preds = %156, %101
  %106 = load i16, ptr %12, align 2
  %107 = zext i16 %106 to i32
  %108 = load i32, ptr %7, align 4
  %109 = icmp ult i32 %107, %108
  br i1 %109, label %110, label %159

110:                                              ; preds = %105
  %111 = load i16, ptr %12, align 2
  %112 = zext i16 %111 to i32
  %113 = load i16, ptr %11, align 2
  %114 = zext i16 %113 to i32
  %115 = icmp slt i32 %112, %114
  br i1 %115, label %116, label %128

116:                                              ; preds = %110
  %117 = load ptr, ptr %6, align 8
  %118 = load i16, ptr %11, align 2
  %119 = zext i16 %118 to i64
  %120 = getelementptr inbounds ptr, ptr %117, i64 %119
  %121 = load ptr, ptr %120, align 8
  %122 = load i16, ptr %12, align 2
  %123 = zext i16 %122 to i64
  %124 = getelementptr inbounds i16, ptr %121, i64 %123
  %125 = load i16, ptr %124, align 2
  %126 = zext i16 %125 to i32
  %127 = mul nsw i32 2, %126
  br label %145

128:                                              ; preds = %110
  %129 = load ptr, ptr %6, align 8
  %130 = load i16, ptr %11, align 2
  %131 = zext i16 %130 to i64
  %132 = getelementptr inbounds ptr, ptr %129, i64 %131
  %133 = load ptr, ptr %132, align 8
  %134 = load i16, ptr %12, align 2
  %135 = zext i16 %134 to i32
  %136 = load i16, ptr %11, align 2
  %137 = zext i16 %136 to i32
  %138 = sub nsw i32 %135, %137
  %139 = sext i32 %138 to i64
  %140 = getelementptr inbounds i16, ptr %133, i64 %139
  %141 = load i16, ptr %140, align 2
  %142 = zext i16 %141 to i32
  %143 = mul nsw i32 2, %142
  %144 = add nsw i32 %143, 1
  br label %145

145:                                              ; preds = %128, %116
  %146 = phi i32 [ %127, %116 ], [ %144, %128 ]
  %147 = trunc i32 %146 to i16
  %148 = load ptr, ptr %6, align 8
  %149 = load i32, ptr %7, align 4
  %150 = zext i32 %149 to i64
  %151 = getelementptr inbounds ptr, ptr %148, i64 %150
  %152 = load ptr, ptr %151, align 8
  %153 = load i16, ptr %12, align 2
  %154 = zext i16 %153 to i64
  %155 = getelementptr inbounds i16, ptr %152, i64 %154
  store i16 %147, ptr %155, align 2
  br label %156

156:                                              ; preds = %145
  %157 = load i16, ptr %12, align 2
  %158 = add i16 %157, 1
  store i16 %158, ptr %12, align 2
  br label %105, !llvm.loop !15

159:                                              ; preds = %105
  br label %160

160:                                              ; preds = %159, %100
  br label %161

161:                                              ; preds = %160
  %162 = load i32, ptr %7, align 4
  %163 = add i32 %162, 1
  store i32 %163, ptr %7, align 4
  br label %25, !llvm.loop !16

164:                                              ; preds = %25
  ret void
}