; Function Attrs: mustprogress nofree norecurse nosync nounwind memory(readwrite, inaccessiblemem: none) uwtable
define void @_ZN7mitsuba14RadicalInverse26compute_faure_permutationsEjPPt(ptr nocapture noundef nonnull readnone align 8 dereferenceable(68) %0, i32 noundef %1, ptr nocapture noundef readonly %2) local_unnamed_addr #6 align 2 {
  %4 = getelementptr inbounds i8, ptr %2, i64 8
  %5 = load ptr, ptr %4, align 8
  store i16 0, ptr %5, align 2
  %6 = getelementptr inbounds i8, ptr %2, i64 16
  %7 = load ptr, ptr %6, align 8
  store i16 0, ptr %7, align 2
  %8 = load ptr, ptr %6, align 8
  %9 = getelementptr inbounds i8, ptr %8, i64 2
  store i16 1, ptr %9, align 2
  %.not53 = icmp ult i32 %1, 2
  br i1 %.not53, label %._crit_edge, label %.lr.ph.preheader

.lr.ph.preheader:                                 ; preds = %3
  %10 = add i32 %1, 1
  %wide.trip.count = zext i32 %10 to i64
  br label %.lr.ph

.lr.ph:                                           ; preds = %.lr.ph.preheader, %.loopexit
  %indvars.iv = phi i64 [ 2, %.lr.ph.preheader ], [ %indvars.iv.next, %.loopexit ]
  %11 = trunc i64 %indvars.iv to i32
  %12 = and i32 %11, 1
  %.not49 = icmp eq i32 %12, 0
  br i1 %.not49, label %43, label %13

13:                                               ; preds = %.lr.ph
  %14 = add nsw i64 %indvars.iv, -1
  %15 = trunc i64 %14 to i32
  %16 = lshr exact i32 %15, 1
  %17 = trunc i32 %16 to i16
  %18 = and i32 %16, 65535
  %19 = getelementptr inbounds ptr, ptr %2, i64 %14
  %20 = getelementptr inbounds ptr, ptr %2, i64 %indvars.iv
  br label %21

21:                                               ; preds = %13, %35
  %22 = phi i32 [ 0, %13 ], [ %40, %35 ]
  %.04451 = phi i16 [ 0, %13 ], [ %39, %35 ]
  %23 = icmp eq i32 %18, %22
  br i1 %23, label %35, label %24

24:                                               ; preds = %21
  %25 = load ptr, ptr %19, align 8
  %26 = icmp ult i32 %18, %22
  %.neg = sext i1 %26 to i32
  %27 = add nsw i32 %22, %.neg
  %28 = sext i32 %27 to i64
  %29 = getelementptr inbounds i16, ptr %25, i64 %28
  %30 = load i16, ptr %29, align 2
  %31 = zext i16 %30 to i32
  %32 = icmp ule i32 %18, %31
  %33 = zext i1 %32 to i16
  %34 = add i16 %30, %33
  br label %35

35:                                               ; preds = %21, %24
  %.sink = phi i16 [ %34, %24 ], [ %17, %21 ]
  %36 = load ptr, ptr %20, align 8
  %37 = zext i16 %.04451 to i64
  %38 = getelementptr inbounds i16, ptr %36, i64 %37
  store i16 %.sink, ptr %38, align 2
  %39 = add i16 %.04451, 1
  %40 = zext i16 %39 to i32
  %41 = zext i16 %39 to i64
  %42 = icmp ugt i64 %indvars.iv, %41
  br i1 %42, label %21, label %.loopexit, !llvm.loop !9

43:                                               ; preds = %.lr.ph
  %44 = lshr exact i32 %11, 1
  %45 = and i32 %44, 65535
  %46 = zext nneg i32 %45 to i64
  %47 = getelementptr inbounds ptr, ptr %2, i64 %46
  %48 = getelementptr inbounds ptr, ptr %2, i64 %indvars.iv
  br label %49

49:                                               ; preds = %43, %65
  %50 = phi i32 [ 0, %43 ], [ %70, %65 ]
  %.052 = phi i16 [ 0, %43 ], [ %69, %65 ]
  %51 = icmp ugt i32 %45, %50
  %52 = load ptr, ptr %47, align 8
  br i1 %51, label %53, label %58

53:                                               ; preds = %49
  %54 = zext i16 %.052 to i64
  %55 = getelementptr inbounds i16, ptr %52, i64 %54
  %56 = load i16, ptr %55, align 2
  %57 = shl i16 %56, 1
  br label %65

58:                                               ; preds = %49
  %59 = sub nsw i32 %50, %45
  %60 = sext i32 %59 to i64
  %61 = getelementptr inbounds i16, ptr %52, i64 %60
  %62 = load i16, ptr %61, align 2
  %63 = shl i16 %62, 1
  %64 = or disjoint i16 %63, 1
  %.pre = zext i16 %.052 to i64
  br label %65

65:                                               ; preds = %58, %53
  %.pre-phi = phi i64 [ %.pre, %58 ], [ %54, %53 ]
  %66 = phi i16 [ %64, %58 ], [ %57, %53 ]
  %67 = load ptr, ptr %48, align 8
  %68 = getelementptr inbounds i16, ptr %67, i64 %.pre-phi
  store i16 %66, ptr %68, align 2
  %69 = add i16 %.052, 1
  %70 = zext i16 %69 to i32
  %71 = zext i16 %69 to i64
  %72 = icmp ugt i64 %indvars.iv, %71
  br i1 %72, label %49, label %.loopexit, !llvm.loop !10

.loopexit:                                        ; preds = %35, %65
  %indvars.iv.next = add nuw nsw i64 %indvars.iv, 1
  %exitcond.not = icmp eq i64 %indvars.iv.next, %wide.trip.count
  br i1 %exitcond.not, label %._crit_edge, label %.lr.ph, !llvm.loop !11

._crit_edge:                                      ; preds = %.loopexit, %3
  ret void
}